(S'\x8e1i\xf4\xa5E\xc1/j\xd1\xdb\xd4\xf7\x1b\x8aF\xe1\x95&\xd4 h\xe0\xa4\xa5Gm\xeeJ\xb3|>'
p1
L20594032252879674911107151792250740133485384733706593406641144148643090262166161268350905361543739675276046183339933L
L15966010525111616385288122018512441922188648653015774214088193415294997429744071922697487987496538705757718521786537L
t.