(S"RO\xeets\x9bJ\xa6\xd9U6\xb2\x88V\xfe$\x80\x01\x95\xc4&'\xd1z\xc1\x93\x06\x07l\x1f\xb1\xf8"
p1
L6130475105040124771837934775728610774803657109009616722781388535363816828204727657784491428800029841948392826891324L
L15966010525111616385288122018512441922188648653015774214088193415294997429744071922697487987496538705757718521786537L
t.